; Function Attrs: mustprogress nounwind uwtable
define noundef i64 @_ZNK14vsstatus_csr_t4readEv(ptr noundef nonnull readonly align 8 captures(none) dereferenceable(64) %0) unnamed_addr #7 align 2 {
  %2 = getelementptr inbounds nuw i8, ptr %0, i64 16
  %3 = load ptr, ptr %2, align 8, !tbaa !15
  %4 = getelementptr inbounds nuw i8, ptr %3, i64 3280
  %5 = load ptr, ptr %4, align 8, !tbaa !176
  %6 = load ptr, ptr %5, align 8, !tbaa !3
  %7 = getelementptr inbounds nuw i8, ptr %6, i64 8
  %8 = load ptr, ptr %7, align 8
  %9 = tail call noundef i64 %8(ptr noundef nonnull align 8 dereferenceable(37) %5) #30
  %10 = getelementptr inbounds nuw i8, ptr %0, i64 48
  %11 = load i64, ptr %10, align 8, !tbaa !191
  %12 = lshr i64 %9, 35
  %13 = or i64 %12, -16777217
  %14 = and i64 %13, %11
  %15 = getelementptr inbounds nuw i8, ptr %0, i64 56
  %16 = load i64, ptr %15, align 8, !tbaa !196
  %17 = and i64 %14, %16
  ret i64 %17
}